target datalayout = "e-m:e-p270:32:32-p271:32:32-p272:64:64-i64:64-i128:128-f80:128-n8:16:32:64-S128"
target triple = "x86_64-unknown-linux-gnu"

%"class.std::__cxx11::basic_string" = type { %"struct.std::__cxx11::basic_string<char>::_Alloc_hider", i64, %union.anon }
%"struct.std::__cxx11::basic_string<char>::_Alloc_hider" = type { ptr }
%union.anon = type { i64, [8 x i8] }
%struct.train_params_common = type <{ ptr, ptr, ptr, ptr, ptr, i8, [3 x i8], i32, i32, i32, i32, i32, i32, i32, i32, i8, i8, i8, i8, %"class.std::__cxx11::basic_string", i8, i8, i8, i8, i8, i8, i8, i8, i32, i32, float, float, i8, [3 x i8], i32, float, i32, i32, float, float, float, i32, float, float, float, float, [4 x i8] }>

@.str = private unnamed_addr constant [1 x i8] zeroinitializer, align 1
@.str.37 = private unnamed_addr constant [16 x i8] c"shakespeare.txt\00", align 1
@.str.38 = private unnamed_addr constant [16 x i8] c"checkpoint.gguf\00", align 1
@.str.39 = private unnamed_addr constant [26 x i8] c"checkpoint-ITERATION.gguf\00", align 1
@.str.40 = private unnamed_addr constant [10 x i8] c"ITERATION\00", align 1
@.str.41 = private unnamed_addr constant [7 x i8] c"LATEST\00", align 1

; Function Attrs: mustprogress nounwind uwtable
define linkonce_odr void @_ZN19train_params_commonD2Ev(ptr noundef nonnull align 8 dereferenceable(188) %this) unnamed_addr #6 comdat align 2 {
entry:
  %this.addr = alloca ptr, align 8
  store ptr %this, ptr %this.addr, align 8
  %this1 = load ptr, ptr %this.addr, align 8
  %sample_start = getelementptr inbounds %struct.train_params_common, ptr %this1, i32 0, i32 19
  call void @_ZNSt7__cxx1112basic_stringIcSt11char_traitsIcESaIcEED1Ev(ptr noundef nonnull align 8 dereferenceable(32) %sample_start) #3
  ret void
}

; Function Attrs: mustprogress nounwind uwtable
define linkonce_odr void @_ZN19train_params_commonC2Ev(ptr noundef nonnull align 8 dereferenceable(188) %this) unnamed_addr #6 comdat align 2 {
entry:
  %this.addr = alloca ptr, align 8
  store ptr %this, ptr %this.addr, align 8
  %this1 = load ptr, ptr %this.addr, align 8
  %sample_start = getelementptr inbounds %struct.train_params_common, ptr %this1, i32 0, i32 19
  call void @_ZNSt7__cxx1112basic_stringIcSt11char_traitsIcESaIcEEC1Ev(ptr noundef nonnull align 8 dereferenceable(32) %sample_start) #3
  ret void
}

; Function Attrs: mustprogress uwtable
define void @_Z31get_default_train_params_commonv(ptr noalias sret(%struct.train_params_common) align 8 %agg.result) #4 personality ptr @__gxx_personality_v0 {
entry:
  %result.ptr = alloca ptr, align 8
  %nrvo = alloca i1, align 1
  %exn.slot = alloca ptr, align 8
  %ehselector.slot = alloca i32, align 4
  store ptr %agg.result, ptr %result.ptr, align 8
  store i1 false, ptr %nrvo, align 1
  call void @_ZN19train_params_commonC2Ev(ptr noundef nonnull align 8 dereferenceable(188) %agg.result) #3
  %fn_train_data = getelementptr inbounds %struct.train_params_common, ptr %agg.result, i32 0, i32 0
  store ptr @.str.37, ptr %fn_train_data, align 8
  %fn_checkpoint_in = getelementptr inbounds %struct.train_params_common, ptr %agg.result, i32 0, i32 1
  store ptr @.str.38, ptr %fn_checkpoint_in, align 8
  %fn_checkpoint_out = getelementptr inbounds %struct.train_params_common, ptr %agg.result, i32 0, i32 2
  store ptr @.str.39, ptr %fn_checkpoint_out, align 8
  %pattern_fn_it = getelementptr inbounds %struct.train_params_common, ptr %agg.result, i32 0, i32 3
  store ptr @.str.40, ptr %pattern_fn_it, align 8
  %fn_latest = getelementptr inbounds %struct.train_params_common, ptr %agg.result, i32 0, i32 4
  store ptr @.str.41, ptr %fn_latest, align 8
  %print_usage = getelementptr inbounds %struct.train_params_common, ptr %agg.result, i32 0, i32 5
  store i8 0, ptr %print_usage, align 8
  %save_every = getelementptr inbounds %struct.train_params_common, ptr %agg.result, i32 0, i32 7
  store i32 10, ptr %save_every, align 4
  %seed = getelementptr inbounds %struct.train_params_common, ptr %agg.result, i32 0, i32 8
  store i32 -1, ptr %seed, align 8
  %n_ctx = getelementptr inbounds %struct.train_params_common, ptr %agg.result, i32 0, i32 9
  store i32 128, ptr %n_ctx, align 4
  %n_threads = getelementptr inbounds %struct.train_params_common, ptr %agg.result, i32 0, i32 10
  store i32 6, ptr %n_threads, align 8
  %n_batch = getelementptr inbounds %struct.train_params_common, ptr %agg.result, i32 0, i32 11
  store i32 8, ptr %n_batch, align 4
  %n_gradient_accumulation = getelementptr inbounds %struct.train_params_common, ptr %agg.result, i32 0, i32 12
  store i32 1, ptr %n_gradient_accumulation, align 8
  %n_epochs = getelementptr inbounds %struct.train_params_common, ptr %agg.result, i32 0, i32 13
  store i32 -1, ptr %n_epochs, align 4
  %n_gpu_layers = getelementptr inbounds %struct.train_params_common, ptr %agg.result, i32 0, i32 14
  store i32 0, ptr %n_gpu_layers, align 8
  %custom_n_ctx = getelementptr inbounds %struct.train_params_common, ptr %agg.result, i32 0, i32 15
  store i8 0, ptr %custom_n_ctx, align 4
  %use_flash = getelementptr inbounds %struct.train_params_common, ptr %agg.result, i32 0, i32 16
  store i8 1, ptr %use_flash, align 1
  %use_checkpointing = getelementptr inbounds %struct.train_params_common, ptr %agg.result, i32 0, i32 17
  store i8 1, ptr %use_checkpointing, align 2
  %sample_start = getelementptr inbounds %struct.train_params_common, ptr %agg.result, i32 0, i32 19
  %call = invoke noundef nonnull align 8 dereferenceable(32) ptr @_ZNSt7__cxx1112basic_stringIcSt11char_traitsIcESaIcEEaSEPKc(ptr noundef nonnull align 8 dereferenceable(32) %sample_start, ptr noundef @.str)
          to label %invoke.cont unwind label %lpad

invoke.cont:                                      ; preds = %entry
  %include_sample_start = getelementptr inbounds %struct.train_params_common, ptr %agg.result, i32 0, i32 20
  store i8 0, ptr %include_sample_start, align 8
  %escape = getelementptr inbounds %struct.train_params_common, ptr %agg.result, i32 0, i32 21
  store i8 0, ptr %escape, align 1
  %overlapping_samples = getelementptr inbounds %struct.train_params_common, ptr %agg.result, i32 0, i32 22
  store i8 0, ptr %overlapping_samples, align 2
  %fill_with_next_samples = getelementptr inbounds %struct.train_params_common, ptr %agg.result, i32 0, i32 23
  store i8 0, ptr %fill_with_next_samples, align 1
  %separate_with_eos = getelementptr inbounds %struct.train_params_common, ptr %agg.result, i32 0, i32 24
  store i8 0, ptr %separate_with_eos, align 4
  %separate_with_bos = getelementptr inbounds %struct.train_params_common, ptr %agg.result, i32 0, i32 25
  store i8 1, ptr %separate_with_bos, align 1
  %sample_random_offsets = getelementptr inbounds %struct.train_params_common, ptr %agg.result, i32 0, i32 26
  store i8 0, ptr %sample_random_offsets, align 2
  %force_reshuffle = getelementptr inbounds %struct.train_params_common, ptr %agg.result, i32 0, i32 27
  store i8 0, ptr %force_reshuffle, align 1
  %opt_past = getelementptr inbounds %struct.train_params_common, ptr %agg.result, i32 0, i32 34
  store i32 0, ptr %opt_past, align 4
  %opt_delta = getelementptr inbounds %struct.train_params_common, ptr %agg.result, i32 0, i32 35
  store float 0x3EE4F8B580000000, ptr %opt_delta, align 8
  %opt_max_no_improvement = getelementptr inbounds %struct.train_params_common, ptr %agg.result, i32 0, i32 36
  store i32 0, ptr %opt_max_no_improvement, align 4
  %warmup = getelementptr inbounds %struct.train_params_common, ptr %agg.result, i32 0, i32 28
  store i32 100, ptr %warmup, align 8
  %cos_decay_steps = getelementptr inbounds %struct.train_params_common, ptr %agg.result, i32 0, i32 29
  store i32 1000, ptr %cos_decay_steps, align 4
  %cos_decay_restart = getelementptr inbounds %struct.train_params_common, ptr %agg.result, i32 0, i32 30
  store float 0x3FF19999A0000000, ptr %cos_decay_restart, align 8
  %cos_decay_min = getelementptr inbounds %struct.train_params_common, ptr %agg.result, i32 0, i32 31
  store float 0x3FB99999A0000000, ptr %cos_decay_min, align 4
  %enable_restart = getelementptr inbounds %struct.train_params_common, ptr %agg.result, i32 0, i32 32
  store i8 0, ptr %enable_restart, align 8
  %adam_n_iter = getelementptr inbounds %struct.train_params_common, ptr %agg.result, i32 0, i32 37
  store i32 256, ptr %adam_n_iter, align 8
  %adam_alpha = getelementptr inbounds %struct.train_params_common, ptr %agg.result, i32 0, i32 38
  store float 0x3F50624DE0000000, ptr %adam_alpha, align 4
  %adam_min_alpha = getelementptr inbounds %struct.train_params_common, ptr %agg.result, i32 0, i32 39
  store float 0.000000e+00, ptr %adam_min_alpha, align 8
  %adam_decay = getelementptr inbounds %struct.train_params_common, ptr %agg.result, i32 0, i32 40
  store float 0x3FB99999A0000000, ptr %adam_decay, align 4
  %adam_decay_min_ndim = getelementptr inbounds %struct.train_params_common, ptr %agg.result, i32 0, i32 41
  store i32 2, ptr %adam_decay_min_ndim, align 8
  %adam_beta1 = getelementptr inbounds %struct.train_params_common, ptr %agg.result, i32 0, i32 42
  store float 0x3FECCCCCC0000000, ptr %adam_beta1, align 4
  %adam_beta2 = getelementptr inbounds %struct.train_params_common, ptr %agg.result, i32 0, i32 43
  store float 0x3FEFF7CEE0000000, ptr %adam_beta2, align 8
  %adam_gclip = getelementptr inbounds %struct.train_params_common, ptr %agg.result, i32 0, i32 44
  store float 1.000000e+00, ptr %adam_gclip, align 4
  %adam_eps_f = getelementptr inbounds %struct.train_params_common, ptr %agg.result, i32 0, i32 45
  store float 0.000000e+00, ptr %adam_eps_f, align 8
  store i1 true, ptr %nrvo, align 1
  %nrvo.val = load i1, ptr %nrvo, align 1
  br i1 %nrvo.val, label %nrvo.skipdtor, label %nrvo.unused

lpad:                                             ; preds = %entry
  %0 = landingpad { ptr, i32 }
          cleanup
  %1 = extractvalue { ptr, i32 } %0, 0
  store ptr %1, ptr %exn.slot, align 8
  %2 = extractvalue { ptr, i32 } %0, 1
  store i32 %2, ptr %ehselector.slot, align 4
  call void @_ZN19train_params_commonD2Ev(ptr noundef nonnull align 8 dereferenceable(188) %agg.result) #3
  br label %eh.resume

nrvo.unused:                                      ; preds = %invoke.cont
  call void @_ZN19train_params_commonD2Ev(ptr noundef nonnull align 8 dereferenceable(188) %agg.result) #3
  br label %nrvo.skipdtor

nrvo.skipdtor:                                    ; preds = %nrvo.unused, %invoke.cont
  ret void

eh.resume:                                        ; preds = %lpad
  %exn = load ptr, ptr %exn.slot, align 8
  %sel = load i32, ptr %ehselector.slot, align 4
  %lpad.val = insertvalue { ptr, i32 } poison, ptr %exn, 0
  %lpad.val1 = insertvalue { ptr, i32 } %lpad.val, i32 %sel, 1
  resume { ptr, i32 } %lpad.val1
}