; Function Attrs: mustprogress uwtable
define void @_Z31get_default_train_params_commonv(ptr noalias sret(%struct.train_params_common) align 8 %agg.result) local_unnamed_addr #3 personality ptr @__gxx_personality_v0 {
entry:
  %sample_start.i = getelementptr inbounds nuw i8, ptr %agg.result, i64 80
  tail call void @_ZNSt7__cxx1112basic_stringIcSt11char_traitsIcESaIcEEC1Ev(ptr noundef nonnull align 8 dereferenceable(32) %sample_start.i) #36
  store ptr @.str.37, ptr %agg.result, align 8
  %fn_checkpoint_in = getelementptr inbounds nuw i8, ptr %agg.result, i64 8
  store ptr @.str.38, ptr %fn_checkpoint_in, align 8
  %fn_checkpoint_out = getelementptr inbounds nuw i8, ptr %agg.result, i64 16
  store ptr @.str.39, ptr %fn_checkpoint_out, align 8
  %pattern_fn_it = getelementptr inbounds nuw i8, ptr %agg.result, i64 24
  store ptr @.str.40, ptr %pattern_fn_it, align 8
  %fn_latest = getelementptr inbounds nuw i8, ptr %agg.result, i64 32
  store ptr @.str.41, ptr %fn_latest, align 8
  %print_usage = getelementptr inbounds nuw i8, ptr %agg.result, i64 40
  store i8 0, ptr %print_usage, align 8
  %save_every = getelementptr inbounds nuw i8, ptr %agg.result, i64 44
  store i32 10, ptr %save_every, align 4
  %seed = getelementptr inbounds nuw i8, ptr %agg.result, i64 48
  store i32 -1, ptr %seed, align 8
  %n_ctx = getelementptr inbounds nuw i8, ptr %agg.result, i64 52
  store i32 128, ptr %n_ctx, align 4
  %n_threads = getelementptr inbounds nuw i8, ptr %agg.result, i64 56
  store i32 6, ptr %n_threads, align 8
  %n_batch = getelementptr inbounds nuw i8, ptr %agg.result, i64 60
  store i32 8, ptr %n_batch, align 4
  %n_gradient_accumulation = getelementptr inbounds nuw i8, ptr %agg.result, i64 64
  store i32 1, ptr %n_gradient_accumulation, align 8
  %n_epochs = getelementptr inbounds nuw i8, ptr %agg.result, i64 68
  store i32 -1, ptr %n_epochs, align 4
  %n_gpu_layers = getelementptr inbounds nuw i8, ptr %agg.result, i64 72
  store i32 0, ptr %n_gpu_layers, align 8
  %custom_n_ctx = getelementptr inbounds nuw i8, ptr %agg.result, i64 76
  store i8 0, ptr %custom_n_ctx, align 4
  %use_flash = getelementptr inbounds nuw i8, ptr %agg.result, i64 77
  store i8 1, ptr %use_flash, align 1
  %use_checkpointing = getelementptr inbounds nuw i8, ptr %agg.result, i64 78
  store i8 1, ptr %use_checkpointing, align 2
  %call = invoke noundef nonnull align 8 dereferenceable(32) ptr @_ZNSt7__cxx1112basic_stringIcSt11char_traitsIcESaIcEEaSEPKc(ptr noundef nonnull align 8 dereferenceable(32) %sample_start.i, ptr noundef nonnull @.str)
          to label %invoke.cont unwind label %lpad

invoke.cont:                                      ; preds = %entry
  %include_sample_start = getelementptr inbounds nuw i8, ptr %agg.result, i64 112
  %separate_with_bos = getelementptr inbounds nuw i8, ptr %agg.result, i64 117
  tail call void @llvm.memset.p0.i64(ptr noundef nonnull align 8 dereferenceable(5) %include_sample_start, i8 0, i64 5, i1 false)
  store i8 1, ptr %separate_with_bos, align 1
  %sample_random_offsets = getelementptr inbounds nuw i8, ptr %agg.result, i64 118
  store i8 0, ptr %sample_random_offsets, align 2
  %force_reshuffle = getelementptr inbounds nuw i8, ptr %agg.result, i64 119
  store i8 0, ptr %force_reshuffle, align 1
  %opt_past = getelementptr inbounds nuw i8, ptr %agg.result, i64 140
  store i32 0, ptr %opt_past, align 4
  %opt_delta = getelementptr inbounds nuw i8, ptr %agg.result, i64 144
  store float 0x3EE4F8B580000000, ptr %opt_delta, align 8
  %opt_max_no_improvement = getelementptr inbounds nuw i8, ptr %agg.result, i64 148
  store i32 0, ptr %opt_max_no_improvement, align 4
  %warmup = getelementptr inbounds nuw i8, ptr %agg.result, i64 120
  store i32 100, ptr %warmup, align 8
  %cos_decay_steps = getelementptr inbounds nuw i8, ptr %agg.result, i64 124
  store i32 1000, ptr %cos_decay_steps, align 4
  %cos_decay_restart = getelementptr inbounds nuw i8, ptr %agg.result, i64 128
  store float 0x3FF19999A0000000, ptr %cos_decay_restart, align 8
  %cos_decay_min = getelementptr inbounds nuw i8, ptr %agg.result, i64 132
  store float 0x3FB99999A0000000, ptr %cos_decay_min, align 4
  %enable_restart = getelementptr inbounds nuw i8, ptr %agg.result, i64 136
  store i8 0, ptr %enable_restart, align 8
  %adam_n_iter = getelementptr inbounds nuw i8, ptr %agg.result, i64 152
  store i32 256, ptr %adam_n_iter, align 8
  %adam_alpha = getelementptr inbounds nuw i8, ptr %agg.result, i64 156
  store float 0x3F50624DE0000000, ptr %adam_alpha, align 4
  %adam_min_alpha = getelementptr inbounds nuw i8, ptr %agg.result, i64 160
  store float 0.000000e+00, ptr %adam_min_alpha, align 8
  %adam_decay = getelementptr inbounds nuw i8, ptr %agg.result, i64 164
  store float 0x3FB99999A0000000, ptr %adam_decay, align 4
  %adam_decay_min_ndim = getelementptr inbounds nuw i8, ptr %agg.result, i64 168
  store i32 2, ptr %adam_decay_min_ndim, align 8
  %adam_beta1 = getelementptr inbounds nuw i8, ptr %agg.result, i64 172
  store float 0x3FECCCCCC0000000, ptr %adam_beta1, align 4
  %adam_beta2 = getelementptr inbounds nuw i8, ptr %agg.result, i64 176
  store float 0x3FEFF7CEE0000000, ptr %adam_beta2, align 8
  %adam_gclip = getelementptr inbounds nuw i8, ptr %agg.result, i64 180
  store float 1.000000e+00, ptr %adam_gclip, align 4
  %adam_eps_f = getelementptr inbounds nuw i8, ptr %agg.result, i64 184
  store float 0.000000e+00, ptr %adam_eps_f, align 8
  ret void

lpad:                                             ; preds = %entry
  %0 = landingpad { ptr, i32 }
          cleanup
  tail call void @_ZNSt7__cxx1112basic_stringIcSt11char_traitsIcESaIcEED1Ev(ptr noundef nonnull align 8 dereferenceable(32) %sample_start.i) #36
  resume { ptr, i32 } %0
}